; Function Attrs: mustprogress uwtable
define hidden noundef zeroext i1 @_ZNK11permutation15check_invariantEv(ptr noundef nonnull readonly align 8 captures(none) dereferenceable(16) %0) local_unnamed_addr #3 align 2 personality ptr @__gxx_personality_v0 {
  %2 = alloca %class.svector.0, align 8
  %3 = load ptr, ptr %0, align 8, !tbaa !3
  %4 = icmp eq ptr %3, null
  br i1 %4, label %_ZNK6vectorIjLb0EjE4sizeEv.exit.thread, label %_ZNK6vectorIjLb0EjE4sizeEv.exit

_ZNK6vectorIjLb0EjE4sizeEv.exit.thread:           ; preds = %1
  call void @llvm.lifetime.start.p0(i64 8, ptr nonnull %2) #20
  br label %_ZN6vectorIbLb0EjED2Ev.exit

_ZNK6vectorIjLb0EjE4sizeEv.exit:                  ; preds = %1
  %5 = getelementptr inbounds i8, ptr %3, i64 -4
  %6 = load i32, ptr %5, align 4, !tbaa !9
  call void @llvm.lifetime.start.p0(i64 8, ptr nonnull %2) #20
  store ptr null, ptr %2, align 8, !tbaa !15
  %.not.not.i.i.i = icmp eq i32 %6, 0
  br i1 %.not.not.i.i.i, label %_ZN6vectorIbLb0EjED2Ev.exit, label %.preheader.i.i

thread-pre-split.i.i.i:                           ; preds = %_ZNK6vectorIbLb0EjE8capacityEv.exit.i.i.i, %.preheader.i.i
  call void @_ZN6vectorIbLb0EjE13expand_vectorEv(ptr noundef nonnull align 8 dereferenceable(8) %2)
  %.pr.pre.i.i.i = load ptr, ptr %2, align 8, !tbaa !15
  br label %.preheader.i.i

.preheader.i.i:                                   ; preds = %_ZNK6vectorIjLb0EjE4sizeEv.exit, %thread-pre-split.i.i.i
  %7 = phi ptr [ %.pr.pre.i.i.i, %thread-pre-split.i.i.i ], [ null, %_ZNK6vectorIjLb0EjE4sizeEv.exit ]
  %8 = icmp eq ptr %7, null
  br i1 %8, label %thread-pre-split.i.i.i, label %_ZNK6vectorIbLb0EjE8capacityEv.exit.i.i.i

_ZNK6vectorIbLb0EjE8capacityEv.exit.i.i.i:        ; preds = %.preheader.i.i
  %9 = getelementptr inbounds i8, ptr %7, i64 -8
  %10 = load i32, ptr %9, align 4, !tbaa !9
  %11 = icmp ugt i32 %6, %10
  br i1 %11, label %thread-pre-split.i.i.i, label %_ZN7svectorIbjEC2EjRKb.exit

_ZN7svectorIbjEC2EjRKb.exit:                      ; preds = %_ZNK6vectorIbLb0EjE8capacityEv.exit.i.i.i
  %12 = getelementptr inbounds i8, ptr %7, i64 -4
  store i32 %6, ptr %12, align 4, !tbaa !9
  %13 = zext i32 %6 to i64
  call void @llvm.memset.p0.i64(ptr nonnull align 1 %7, i8 0, i64 %13, i1 false), !tbaa !18
  %14 = load ptr, ptr %0, align 8, !tbaa !3
  %wide.trip.count = zext i32 %6 to i64
  br label %15

15:                                               ; preds = %_ZN7svectorIbjEC2EjRKb.exit, %22
  %indvars.iv = phi i64 [ 0, %_ZN7svectorIbjEC2EjRKb.exit ], [ %indvars.iv.next, %22 ]
  %16 = getelementptr inbounds nuw i32, ptr %14, i64 %indvars.iv
  %17 = load i32, ptr %16, align 4, !tbaa !9
  %18 = zext i32 %17 to i64
  %19 = getelementptr inbounds nuw i8, ptr %7, i64 %18
  %20 = load i8, ptr %19, align 1, !tbaa !18, !range !20, !noundef !21
  %21 = trunc nuw i8 %20 to i1
  br i1 %21, label %.critedge.thread, label %22

22:                                               ; preds = %15
  store i8 1, ptr %19, align 1, !tbaa !18
  %indvars.iv.next = add nuw nsw i64 %indvars.iv, 1
  %exitcond.not = icmp eq i64 %indvars.iv.next, %wide.trip.count
  br i1 %exitcond.not, label %.critedge.thread, label %15, !llvm.loop !22

.critedge.thread:                                 ; preds = %22, %15
  %.not20 = xor i1 %21, true
  %23 = getelementptr inbounds i8, ptr %7, i64 -8
  invoke void @_ZN6memory10deallocateEPv(ptr noundef nonnull %23)
          to label %_ZN6vectorIbLb0EjED2Ev.exit unwind label %24

24:                                               ; preds = %.critedge.thread
  %25 = landingpad { ptr, i32 }
          catch ptr null
  %26 = extractvalue { ptr, i32 } %25, 0
  call void @__clang_call_terminate(ptr %26) #21
  unreachable

_ZN6vectorIbLb0EjED2Ev.exit:                      ; preds = %_ZNK6vectorIjLb0EjE4sizeEv.exit, %_ZNK6vectorIjLb0EjE4sizeEv.exit.thread, %.critedge.thread
  %.not21 = phi i1 [ %.not20, %.critedge.thread ], [ true, %_ZNK6vectorIjLb0EjE4sizeEv.exit.thread ], [ true, %_ZNK6vectorIjLb0EjE4sizeEv.exit ]
  call void @llvm.lifetime.end.p0(i64 8, ptr nonnull %2) #20
  ret i1 %.not21
}